; Function Attrs: mustprogress uwtable
define void @_ZN7rocksdb15DeleteScheduler17WaitForEmptyTrashEv(ptr noundef nonnull align 8 dereferenceable(488) %0) local_unnamed_addr #4 align 2 personality ptr @__gxx_personality_v0 {
  %2 = getelementptr inbounds nuw i8, ptr %0, i64 32
  tail call void @_ZN7rocksdb17InstrumentedMutex4LockEv(ptr noundef nonnull align 8 dereferenceable(60) %2)
  %3 = getelementptr inbounds nuw i8, ptr %0, i64 176
  %4 = getelementptr inbounds nuw i8, ptr %0, i64 289
  %5 = getelementptr inbounds nuw i8, ptr %0, i64 296
  br label %6

6:                                                ; preds = %12, %1
  %7 = load i32, ptr %3, align 8, !tbaa !75
  %8 = icmp sgt i32 %7, 0
  br i1 %8, label %9, label %.critedge

9:                                                ; preds = %6
  %10 = load i8, ptr %4, align 1, !tbaa !84, !range !153, !noundef !154
  %11 = trunc nuw i8 %10 to i1
  br i1 %11, label %.critedge, label %12

12:                                               ; preds = %9
  invoke void @_ZN7rocksdb19InstrumentedCondVar4WaitEv(ptr noundef nonnull align 8 dereferenceable(76) %5)
          to label %6 unwind label %13, !llvm.loop !272

13:                                               ; preds = %12
  %14 = landingpad { ptr, i32 }
          cleanup
  invoke void @_ZN7rocksdb4port5Mutex6UnlockEv(ptr noundef nonnull align 8 dereferenceable(60) %2)
          to label %_ZN7rocksdb21InstrumentedMutexLockD2Ev.exit unwind label %15

15:                                               ; preds = %13
  %16 = landingpad { ptr, i32 }
          catch ptr null
  %17 = extractvalue { ptr, i32 } %16, 0
  tail call void @__clang_call_terminate(ptr %17) #25
  unreachable

_ZN7rocksdb21InstrumentedMutexLockD2Ev.exit:      ; preds = %13
  resume { ptr, i32 } %14

.critedge:                                        ; preds = %6, %9
  invoke void @_ZN7rocksdb4port5Mutex6UnlockEv(ptr noundef nonnull align 8 dereferenceable(60) %2)
          to label %_ZN7rocksdb21InstrumentedMutexLockD2Ev.exit2 unwind label %18

18:                                               ; preds = %.critedge
  %19 = landingpad { ptr, i32 }
          catch ptr null
  %20 = extractvalue { ptr, i32 } %19, 0
  tail call void @__clang_call_terminate(ptr %20) #25
  unreachable

_ZN7rocksdb21InstrumentedMutexLockD2Ev.exit2:     ; preds = %.critedge
  ret void
}